target datalayout = "e-m:e-p270:32:32-p271:32:32-p272:64:64-i64:64-i128:128-f80:128-n8:16:32:64-S128"
target triple = "x86_64-unknown-linux-gnu"

%"class.base::debug::StackTrace" = type { [62 x ptr], i64 }

; Function Attrs: mustprogress nounwind uwtable
define dso_local noundef ptr @_ZNK4base5debug10StackTrace9AddressesEPm(ptr noundef nonnull align 8 dereferenceable(504) %this, ptr noundef %count) #0 align 2 {
entry:
  %retval = alloca ptr, align 8
  %this.addr = alloca ptr, align 8
  %count.addr = alloca ptr, align 8
  store ptr %this, ptr %this.addr, align 8
  store ptr %count, ptr %count.addr, align 8
  %this1 = load ptr, ptr %this.addr, align 8
  %count_ = getelementptr inbounds %"class.base::debug::StackTrace", ptr %this1, i32 0, i32 1
  %0 = load i64, ptr %count_, align 8
  %1 = load ptr, ptr %count.addr, align 8
  store i64 %0, ptr %1, align 8
  %count_2 = getelementptr inbounds %"class.base::debug::StackTrace", ptr %this1, i32 0, i32 1
  %2 = load i64, ptr %count_2, align 8
  %tobool = icmp ne i64 %2, 0
  br i1 %tobool, label %if.then, label %if.end

if.then:                                          ; preds = %entry
  %trace_ = getelementptr inbounds %"class.base::debug::StackTrace", ptr %this1, i32 0, i32 0
  %arraydecay = getelementptr inbounds [62 x ptr], ptr %trace_, i64 0, i64 0
  store ptr %arraydecay, ptr %retval, align 8
  br label %return

if.end:                                           ; preds = %entry
  store ptr null, ptr %retval, align 8
  br label %return

return:                                           ; preds = %if.end, %if.then
  %3 = load ptr, ptr %retval, align 8
  ret ptr %3
}